; Function Attrs: nounwind uwtable
define noalias nonnull ptr @l___private_Lean_Compiler_InlineAttrs_0__Lean_Compiler_isValidMacroInline___lambda__1(ptr noundef readnone captures(none) %0, ptr noundef readnone captures(none) %1, ptr noundef readnone captures(none) %2, ptr noundef %3) local_unnamed_addr #1 {
  tail call void @lean_inc_heartbeat() #7
  %5 = tail call noalias ptr @mi_malloc_small(i64 noundef 24) #7
  %6 = icmp eq ptr %5, null
  br i1 %6, label %7, label %lean_alloc_ctor.exit

7:                                                ; preds = %4
  tail call void @lean_internal_panic_out_of_memory() #8
  unreachable

lean_alloc_ctor.exit:                             ; preds = %4
  %8 = getelementptr inbounds nuw i8, ptr %5, i64 4
  store i32 1, ptr %5, align 4, !tbaa !4
  store i32 131096, ptr %8, align 4
  %9 = getelementptr inbounds nuw i8, ptr %5, i64 8
  store ptr inttoptr (i64 3 to ptr), ptr %9, align 8, !tbaa !10
  %10 = getelementptr inbounds nuw i8, ptr %5, i64 16
  store ptr %3, ptr %10, align 8, !tbaa !10
  ret ptr %5
}